target datalayout = "e-m:e-p270:32:32-p271:32:32-p272:64:64-i64:64-i128:128-f80:128-n8:16:32:64-S128"
target triple = "x86_64-pc-linux-gnu"

%struct.ASMState = type { [32 x i32], ptr, ptr, ptr, ptr, %struct.x86ModRM, i32, i32, i32, i32, i32, i32, i32, i32, i32, i32, i32, i32, i32, i32, i32, i32, i64, i64, i32, i32, i32, i32, i32, ptr, ptr, ptr, ptr, ptr, ptr, ptr, ptr, ptr, [32 x i16], [250 x i16] }
%struct.x86ModRM = type { i32, i8, i8, i8 }

; Function Attrs: alwaysinline nounwind uwtable
define internal ptr @emit_op(i32 noundef %0, i32 noundef %1, i32 noundef %2, i32 noundef %3, ptr noundef %4, i32 noundef %5) #3 {
  %7 = alloca ptr, align 8
  %8 = alloca i32, align 4
  %9 = alloca i32, align 4
  %10 = alloca i32, align 4
  %11 = alloca i32, align 4
  %12 = alloca ptr, align 8
  %13 = alloca i32, align 4
  %14 = alloca i32, align 4
  %15 = alloca i32, align 4
  %16 = alloca i32, align 4
  store i32 %0, ptr %8, align 4, !tbaa !11
  store i32 %1, ptr %9, align 4, !tbaa !11
  store i32 %2, ptr %10, align 4, !tbaa !11
  store i32 %3, ptr %11, align 4, !tbaa !11
  store ptr %4, ptr %12, align 8, !tbaa !13
  store i32 %5, ptr %13, align 4, !tbaa !11
  call void @llvm.lifetime.start.p0(i64 4, ptr %14) #11
  %17 = load i32, ptr %8, align 4, !tbaa !11
  %18 = trunc i32 %17 to i8
  %19 = sext i8 %18 to i32
  store i32 %19, ptr %14, align 4, !tbaa !11
  %20 = load i32, ptr %14, align 4, !tbaa !11
  %21 = icmp eq i32 %20, -60
  br i1 %21, label %22, label %48

22:                                               ; preds = %6
  %23 = load i32, ptr %9, align 4, !tbaa !11
  %24 = lshr i32 %23, 1
  %25 = and i32 %24, 4
  %26 = load i32, ptr %11, align 4, !tbaa !11
  %27 = lshr i32 %26, 2
  %28 = and i32 %27, 2
  %29 = add i32 %25, %28
  %30 = load i32, ptr %10, align 4, !tbaa !11
  %31 = lshr i32 %30, 3
  %32 = and i32 %31, 1
  %33 = add i32 %29, %32
  %34 = shl i32 %33, 13
  %35 = load i32, ptr %8, align 4, !tbaa !11
  %36 = xor i32 %35, %34
  store i32 %36, ptr %8, align 4, !tbaa !11
  %37 = load i32, ptr %8, align 4, !tbaa !11
  %38 = load ptr, ptr %12, align 8, !tbaa !13
  %39 = load i32, ptr %13, align 4, !tbaa !11
  %40 = sext i32 %39 to i64
  %41 = getelementptr inbounds i8, ptr %38, i64 %40
  %42 = getelementptr inbounds i8, ptr %41, i64 -5
  store i32 %37, ptr %42, align 4, !tbaa !11
  %43 = load ptr, ptr %12, align 8, !tbaa !13
  %44 = load i32, ptr %13, align 4, !tbaa !11
  %45 = sext i32 %44 to i64
  %46 = getelementptr inbounds i8, ptr %43, i64 %45
  %47 = getelementptr inbounds i8, ptr %46, i64 -5
  store ptr %47, ptr %7, align 8
  store i32 1, ptr %15, align 4
  br label %138

48:                                               ; preds = %6
  %49 = load i32, ptr %8, align 4, !tbaa !11
  %50 = call i1 @llvm.is.constant.i32(i32 %49)
  br i1 %50, label %51, label %63

51:                                               ; preds = %48
  %52 = load i32, ptr %14, align 4, !tbaa !11
  %53 = icmp eq i32 %52, -2
  br i1 %53, label %54, label %63

54:                                               ; preds = %51
  %55 = load i32, ptr %8, align 4, !tbaa !11
  %56 = lshr i32 %55, 24
  %57 = trunc i32 %56 to i8
  %58 = load ptr, ptr %12, align 8, !tbaa !13
  %59 = load i32, ptr %13, align 4, !tbaa !11
  %60 = sub nsw i32 %59, 2
  %61 = sext i32 %60 to i64
  %62 = getelementptr inbounds i8, ptr %58, i64 %61
  store i8 %57, ptr %62, align 1, !tbaa !25
  br label %86

63:                                               ; preds = %51, %48
  %64 = load i32, ptr %8, align 4, !tbaa !11
  %65 = call i1 @llvm.is.constant.i32(i32 %64)
  br i1 %65, label %66, label %78

66:                                               ; preds = %63
  %67 = load i32, ptr %14, align 4, !tbaa !11
  %68 = icmp eq i32 %67, -3
  br i1 %68, label %69, label %78

69:                                               ; preds = %66
  %70 = load i32, ptr %8, align 4, !tbaa !11
  %71 = lshr i32 %70, 16
  %72 = trunc i32 %71 to i16
  %73 = load ptr, ptr %12, align 8, !tbaa !13
  %74 = load i32, ptr %13, align 4, !tbaa !11
  %75 = sext i32 %74 to i64
  %76 = getelementptr inbounds i8, ptr %73, i64 %75
  %77 = getelementptr inbounds i8, ptr %76, i64 -3
  store i16 %72, ptr %77, align 2, !tbaa !29
  br label %85

78:                                               ; preds = %66, %63
  %79 = load i32, ptr %8, align 4, !tbaa !11
  %80 = load ptr, ptr %12, align 8, !tbaa !13
  %81 = load i32, ptr %13, align 4, !tbaa !11
  %82 = sext i32 %81 to i64
  %83 = getelementptr inbounds i8, ptr %80, i64 %82
  %84 = getelementptr inbounds i8, ptr %83, i64 -5
  store i32 %79, ptr %84, align 4, !tbaa !11
  br label %85

85:                                               ; preds = %78, %69
  br label %86

86:                                               ; preds = %85, %54
  %87 = load i32, ptr %14, align 4, !tbaa !11
  %88 = load i32, ptr %13, align 4, !tbaa !11
  %89 = add nsw i32 %87, %88
  %90 = load ptr, ptr %12, align 8, !tbaa !13
  %91 = sext i32 %89 to i64
  %92 = getelementptr inbounds i8, ptr %90, i64 %91
  store ptr %92, ptr %12, align 8, !tbaa !13
  call void @llvm.lifetime.start.p0(i64 4, ptr %16) #11
  %93 = load i32, ptr %9, align 4, !tbaa !11
  %94 = lshr i32 %93, 1
  %95 = and i32 %94, 260
  %96 = add i32 64, %95
  %97 = load i32, ptr %11, align 4, !tbaa !11
  %98 = lshr i32 %97, 2
  %99 = and i32 %98, 2
  %100 = add i32 %96, %99
  %101 = load i32, ptr %10, align 4, !tbaa !11
  %102 = lshr i32 %101, 3
  %103 = and i32 %102, 1
  %104 = add i32 %100, %103
  store i32 %104, ptr %16, align 4, !tbaa !11
  %105 = load i32, ptr %16, align 4, !tbaa !11
  %106 = icmp ne i32 %105, 64
  br i1 %106, label %107, label %136

107:                                              ; preds = %86
  %108 = load i32, ptr %9, align 4, !tbaa !11
  %109 = lshr i32 %108, 16
  %110 = load i32, ptr %16, align 4, !tbaa !11
  %111 = or i32 %110, %109
  store i32 %111, ptr %16, align 4, !tbaa !11
  %112 = load i32, ptr %14, align 4, !tbaa !11
  %113 = icmp eq i32 %112, -4
  br i1 %113, label %114, label %122

114:                                              ; preds = %107
  %115 = load i32, ptr %16, align 4, !tbaa !11
  %116 = trunc i32 %115 to i8
  %117 = load ptr, ptr %12, align 8, !tbaa !13
  store i8 %116, ptr %117, align 1, !tbaa !25
  %118 = load i32, ptr %8, align 4, !tbaa !11
  %119 = lshr i32 %118, 8
  %120 = trunc i32 %119 to i8
  %121 = zext i8 %120 to i32
  store i32 %121, ptr %16, align 4, !tbaa !11
  br label %131

122:                                              ; preds = %107
  %123 = load i32, ptr %8, align 4, !tbaa !11
  %124 = and i32 %123, 16777215
  %125 = icmp eq i32 %124, 6684925
  br i1 %125, label %126, label %130

126:                                              ; preds = %122
  %127 = load i32, ptr %16, align 4, !tbaa !11
  %128 = trunc i32 %127 to i8
  %129 = load ptr, ptr %12, align 8, !tbaa !13
  store i8 %128, ptr %129, align 1, !tbaa !25
  store i32 102, ptr %16, align 4, !tbaa !11
  br label %130

130:                                              ; preds = %126, %122
  br label %131

131:                                              ; preds = %130, %114
  %132 = load i32, ptr %16, align 4, !tbaa !11
  %133 = trunc i32 %132 to i8
  %134 = load ptr, ptr %12, align 8, !tbaa !13
  %135 = getelementptr inbounds i8, ptr %134, i32 -1
  store ptr %135, ptr %12, align 8, !tbaa !13
  store i8 %133, ptr %135, align 1, !tbaa !25
  br label %136

136:                                              ; preds = %131, %86
  call void @llvm.lifetime.end.p0(i64 4, ptr %16) #11
  %137 = load ptr, ptr %12, align 8, !tbaa !13
  store ptr %137, ptr %7, align 8
  store i32 1, ptr %15, align 4
  br label %138

138:                                              ; preds = %136, %22
  call void @llvm.lifetime.end.p0(i64 4, ptr %14) #11
  %139 = load ptr, ptr %7, align 8
  ret ptr %139
}

; Function Attrs: nounwind uwtable
define internal void @emit_mrm(ptr noundef %0, i32 noundef %1, i32 noundef %2, i32 noundef %3) #0 {
  %5 = alloca ptr, align 8
  %6 = alloca i32, align 4
  %7 = alloca i32, align 4
  %8 = alloca i32, align 4
  %9 = alloca ptr, align 8
  %10 = alloca i32, align 4
  %11 = alloca i32, align 4
  store ptr %0, ptr %5, align 8, !tbaa !33
  store i32 %1, ptr %6, align 4, !tbaa !11
  store i32 %2, ptr %7, align 4, !tbaa !11
  store i32 %3, ptr %8, align 4, !tbaa !11
  call void @llvm.lifetime.start.p0(i64 8, ptr %9) #11
  %12 = load ptr, ptr %5, align 8, !tbaa !33
  %13 = getelementptr inbounds nuw %struct.ASMState, ptr %12, i32 0, i32 1
  %14 = load ptr, ptr %13, align 8, !tbaa !67
  store ptr %14, ptr %9, align 8, !tbaa !13
  call void @llvm.lifetime.start.p0(i64 4, ptr %10) #11
  store i32 192, ptr %10, align 4, !tbaa !11
  %15 = load i32, ptr %8, align 4, !tbaa !11
  %16 = icmp eq i32 %15, 32
  br i1 %16, label %17, label %153

17:                                               ; preds = %4
  %18 = load ptr, ptr %5, align 8, !tbaa !33
  %19 = getelementptr inbounds nuw %struct.ASMState, ptr %18, i32 0, i32 5
  %20 = getelementptr inbounds nuw %struct.x86ModRM, ptr %19, i32 0, i32 1
  %21 = load i8, ptr %20, align 4, !tbaa !89
  %22 = zext i8 %21 to i32
  store i32 %22, ptr %8, align 4, !tbaa !11
  %23 = load i32, ptr %8, align 4, !tbaa !11
  %24 = icmp eq i32 %23, 128
  br i1 %24, label %25, label %43

25:                                               ; preds = %17
  store i32 5, ptr %8, align 4, !tbaa !11
  store i32 0, ptr %10, align 4, !tbaa !11
  %26 = load ptr, ptr %9, align 8, !tbaa !13
  %27 = getelementptr inbounds i8, ptr %26, i64 -4
  store ptr %27, ptr %9, align 8, !tbaa !13
  %28 = load ptr, ptr %5, align 8, !tbaa !33
  %29 = getelementptr inbounds nuw %struct.ASMState, ptr %28, i32 0, i32 5
  %30 = getelementptr inbounds nuw %struct.x86ModRM, ptr %29, i32 0, i32 0
  %31 = load i32, ptr %30, align 8, !tbaa !184
  %32 = load ptr, ptr %9, align 8, !tbaa !13
  store i32 %31, ptr %32, align 4, !tbaa !11
  %33 = load ptr, ptr %5, align 8, !tbaa !33
  %34 = getelementptr inbounds nuw %struct.ASMState, ptr %33, i32 0, i32 5
  %35 = getelementptr inbounds nuw %struct.x86ModRM, ptr %34, i32 0, i32 2
  %36 = load i8, ptr %35, align 1, !tbaa !183
  %37 = zext i8 %36 to i32
  %38 = icmp ne i32 %37, 128
  br i1 %38, label %39, label %40

39:                                               ; preds = %25
  br label %102

40:                                               ; preds = %25
  %41 = load ptr, ptr %9, align 8, !tbaa !13
  %42 = getelementptr inbounds i8, ptr %41, i32 -1
  store ptr %42, ptr %9, align 8, !tbaa !13
  store i8 37, ptr %42, align 1, !tbaa !25
  store i32 4, ptr %8, align 4, !tbaa !11
  br label %152

43:                                               ; preds = %17
  %44 = load i32, ptr %8, align 4, !tbaa !11
  %45 = icmp eq i32 %44, 37
  br i1 %45, label %46, label %54

46:                                               ; preds = %43
  store i32 0, ptr %10, align 4, !tbaa !11
  %47 = load ptr, ptr %9, align 8, !tbaa !13
  %48 = getelementptr inbounds i8, ptr %47, i64 -4
  store ptr %48, ptr %9, align 8, !tbaa !13
  %49 = load ptr, ptr %5, align 8, !tbaa !33
  %50 = getelementptr inbounds nuw %struct.ASMState, ptr %49, i32 0, i32 5
  %51 = getelementptr inbounds nuw %struct.x86ModRM, ptr %50, i32 0, i32 0
  %52 = load i32, ptr %51, align 8, !tbaa !184
  %53 = load ptr, ptr %9, align 8, !tbaa !13
  store i32 %52, ptr %53, align 4, !tbaa !11
  br label %151

54:                                               ; preds = %43
  %55 = load ptr, ptr %5, align 8, !tbaa !33
  %56 = getelementptr inbounds nuw %struct.ASMState, ptr %55, i32 0, i32 5
  %57 = getelementptr inbounds nuw %struct.x86ModRM, ptr %56, i32 0, i32 0
  %58 = load i32, ptr %57, align 8, !tbaa !184
  %59 = icmp eq i32 %58, 0
  br i1 %59, label %60, label %65

60:                                               ; preds = %54
  %61 = load i32, ptr %8, align 4, !tbaa !11
  %62 = and i32 %61, 7
  %63 = icmp ne i32 %62, 5
  br i1 %63, label %64, label %65

64:                                               ; preds = %60
  store i32 0, ptr %10, align 4, !tbaa !11
  br label %94

65:                                               ; preds = %60, %54
  %66 = load ptr, ptr %5, align 8, !tbaa !33
  %67 = getelementptr inbounds nuw %struct.ASMState, ptr %66, i32 0, i32 5
  %68 = getelementptr inbounds nuw %struct.x86ModRM, ptr %67, i32 0, i32 0
  %69 = load i32, ptr %68, align 8, !tbaa !184
  %70 = load ptr, ptr %5, align 8, !tbaa !33
  %71 = getelementptr inbounds nuw %struct.ASMState, ptr %70, i32 0, i32 5
  %72 = getelementptr inbounds nuw %struct.x86ModRM, ptr %71, i32 0, i32 0
  %73 = load i32, ptr %72, align 8, !tbaa !184
  %74 = trunc i32 %73 to i8
  %75 = sext i8 %74 to i32
  %76 = icmp eq i32 %69, %75
  br i1 %76, label %77, label %85

77:                                               ; preds = %65
  %78 = load ptr, ptr %5, align 8, !tbaa !33
  %79 = getelementptr inbounds nuw %struct.ASMState, ptr %78, i32 0, i32 5
  %80 = getelementptr inbounds nuw %struct.x86ModRM, ptr %79, i32 0, i32 0
  %81 = load i32, ptr %80, align 8, !tbaa !184
  %82 = trunc i32 %81 to i8
  %83 = load ptr, ptr %9, align 8, !tbaa !13
  %84 = getelementptr inbounds i8, ptr %83, i32 -1
  store ptr %84, ptr %9, align 8, !tbaa !13
  store i8 %82, ptr %84, align 1, !tbaa !25
  store i32 64, ptr %10, align 4, !tbaa !11
  br label %93

85:                                               ; preds = %65
  %86 = load ptr, ptr %9, align 8, !tbaa !13
  %87 = getelementptr inbounds i8, ptr %86, i64 -4
  store ptr %87, ptr %9, align 8, !tbaa !13
  %88 = load ptr, ptr %5, align 8, !tbaa !33
  %89 = getelementptr inbounds nuw %struct.ASMState, ptr %88, i32 0, i32 5
  %90 = getelementptr inbounds nuw %struct.x86ModRM, ptr %89, i32 0, i32 0
  %91 = load i32, ptr %90, align 8, !tbaa !184
  %92 = load ptr, ptr %9, align 8, !tbaa !13
  store i32 %91, ptr %92, align 4, !tbaa !11
  store i32 128, ptr %10, align 4, !tbaa !11
  br label %93

93:                                               ; preds = %85, %77
  br label %94

94:                                               ; preds = %93, %64
  %95 = load ptr, ptr %5, align 8, !tbaa !33
  %96 = getelementptr inbounds nuw %struct.ASMState, ptr %95, i32 0, i32 5
  %97 = getelementptr inbounds nuw %struct.x86ModRM, ptr %96, i32 0, i32 2
  %98 = load i8, ptr %97, align 1, !tbaa !183
  %99 = zext i8 %98 to i32
  %100 = icmp ne i32 %99, 128
  br i1 %100, label %101, label %143

101:                                              ; preds = %94
  br label %102

102:                                              ; preds = %101, %39
  %103 = load ptr, ptr %5, align 8, !tbaa !33
  %104 = getelementptr inbounds nuw %struct.ASMState, ptr %103, i32 0, i32 5
  %105 = getelementptr inbounds nuw %struct.x86ModRM, ptr %104, i32 0, i32 3
  %106 = load i8, ptr %105, align 2, !tbaa !203
  %107 = zext i8 %106 to i32
  %108 = load ptr, ptr %5, align 8, !tbaa !33
  %109 = getelementptr inbounds nuw %struct.ASMState, ptr %108, i32 0, i32 5
  %110 = getelementptr inbounds nuw %struct.x86ModRM, ptr %109, i32 0, i32 2
  %111 = load i8, ptr %110, align 1, !tbaa !183
  %112 = zext i8 %111 to i32
  %113 = and i32 %112, 7
  %114 = shl i32 %113, 3
  %115 = add nsw i32 %107, %114
  %116 = load i32, ptr %8, align 4, !tbaa !11
  %117 = and i32 %116, 7
  %118 = add i32 %115, %117
  %119 = trunc i32 %118 to i8
  %120 = load ptr, ptr %9, align 8, !tbaa !13
  %121 = getelementptr inbounds i8, ptr %120, i64 -1
  store i8 %119, ptr %121, align 1, !tbaa !25
  %122 = load i32, ptr %10, align 4, !tbaa !11
  %123 = load i32, ptr %7, align 4, !tbaa !11
  %124 = and i32 %123, 7
  %125 = shl i32 %124, 3
  %126 = add i32 %122, %125
  %127 = add i32 %126, 4
  %128 = trunc i32 %127 to i8
  %129 = load ptr, ptr %9, align 8, !tbaa !13
  %130 = getelementptr inbounds i8, ptr %129, i64 -2
  store i8 %128, ptr %130, align 1, !tbaa !25
  %131 = load i32, ptr %6, align 4, !tbaa !11
  %132 = load i32, ptr %7, align 4, !tbaa !11
  %133 = load i32, ptr %8, align 4, !tbaa !11
  %134 = load ptr, ptr %5, align 8, !tbaa !33
  %135 = getelementptr inbounds nuw %struct.ASMState, ptr %134, i32 0, i32 5
  %136 = getelementptr inbounds nuw %struct.x86ModRM, ptr %135, i32 0, i32 2
  %137 = load i8, ptr %136, align 1, !tbaa !183
  %138 = zext i8 %137 to i32
  %139 = load ptr, ptr %9, align 8, !tbaa !13
  %140 = call ptr @emit_op(i32 noundef %131, i32 noundef %132, i32 noundef %133, i32 noundef %138, ptr noundef %139, i32 noundef -1)
  %141 = load ptr, ptr %5, align 8, !tbaa !33
  %142 = getelementptr inbounds nuw %struct.ASMState, ptr %141, i32 0, i32 1
  store ptr %140, ptr %142, align 8, !tbaa !67
  store i32 1, ptr %11, align 4
  br label %172

143:                                              ; preds = %94
  %144 = load i32, ptr %8, align 4, !tbaa !11
  %145 = and i32 %144, 7
  %146 = icmp eq i32 %145, 4
  br i1 %146, label %147, label %150

147:                                              ; preds = %143
  %148 = load ptr, ptr %9, align 8, !tbaa !13
  %149 = getelementptr inbounds i8, ptr %148, i32 -1
  store ptr %149, ptr %9, align 8, !tbaa !13
  store i8 36, ptr %149, align 1, !tbaa !25
  br label %150

150:                                              ; preds = %147, %143
  br label %151

151:                                              ; preds = %150, %46
  br label %152

152:                                              ; preds = %151, %40
  br label %153

153:                                              ; preds = %152, %4
  %154 = load i32, ptr %10, align 4, !tbaa !11
  %155 = load i32, ptr %7, align 4, !tbaa !11
  %156 = and i32 %155, 7
  %157 = shl i32 %156, 3
  %158 = add i32 %154, %157
  %159 = load i32, ptr %8, align 4, !tbaa !11
  %160 = and i32 %159, 7
  %161 = add i32 %158, %160
  %162 = trunc i32 %161 to i8
  %163 = load ptr, ptr %9, align 8, !tbaa !13
  %164 = getelementptr inbounds i8, ptr %163, i64 -1
  store i8 %162, ptr %164, align 1, !tbaa !25
  %165 = load i32, ptr %6, align 4, !tbaa !11
  %166 = load i32, ptr %7, align 4, !tbaa !11
  %167 = load i32, ptr %8, align 4, !tbaa !11
  %168 = load ptr, ptr %9, align 8, !tbaa !13
  %169 = call ptr @emit_op(i32 noundef %165, i32 noundef %166, i32 noundef %167, i32 noundef 0, ptr noundef %168, i32 noundef 0)
  %170 = load ptr, ptr %5, align 8, !tbaa !33
  %171 = getelementptr inbounds nuw %struct.ASMState, ptr %170, i32 0, i32 1
  store ptr %169, ptr %171, align 8, !tbaa !67
  store i32 0, ptr %11, align 4
  br label %172

172:                                              ; preds = %153, %102
  call void @llvm.lifetime.end.p0(i64 4, ptr %10) #11
  call void @llvm.lifetime.end.p0(i64 8, ptr %9) #11
  %173 = load i32, ptr %11, align 4
  switch i32 %173, label %175 [
    i32 0, label %174
    i32 1, label %174
  ]

174:                                              ; preds = %172, %172
  ret void

175:                                              ; preds = %172
  unreachable
}