; Function Attrs: mustprogress nofree norecurse nosync nounwind willreturn memory(write, argmem: readwrite, inaccessiblemem: none) uwtable
define internal fastcc void @emit_mrm(ptr noundef nonnull captures(none) %0, i32 noundef %1, i32 noundef %2, i32 noundef %3) unnamed_addr #11 {
  %5 = getelementptr inbounds nuw i8, ptr %0, i64 128
  %6 = load ptr, ptr %5, align 8, !tbaa !60
  %7 = icmp eq i32 %3, 32
  br i1 %7, label %8, label %105

8:                                                ; preds = %4
  %9 = getelementptr inbounds nuw i8, ptr %0, i64 160
  %10 = getelementptr inbounds nuw i8, ptr %0, i64 164
  %11 = load i8, ptr %10, align 4, !tbaa !67
  %12 = zext i8 %11 to i32
  switch i8 %11, label %23 [
    i8 -128, label %13
    i8 37, label %20
  ]

13:                                               ; preds = %8
  %14 = getelementptr inbounds i8, ptr %6, i64 -4
  %15 = load i32, ptr %9, align 8, !tbaa !131
  store i32 %15, ptr %14, align 4, !tbaa !21
  %16 = getelementptr inbounds nuw i8, ptr %0, i64 165
  %17 = load i8, ptr %16, align 1, !tbaa !132
  %.not55 = icmp eq i8 %17, -128
  br i1 %.not55, label %18, label %38

18:                                               ; preds = %13
  %19 = getelementptr inbounds i8, ptr %6, i64 -5
  store i8 37, ptr %19, align 1, !tbaa !20
  br label %105

20:                                               ; preds = %8
  %21 = getelementptr inbounds i8, ptr %6, i64 -4
  %22 = load i32, ptr %9, align 8, !tbaa !131
  store i32 %22, ptr %21, align 4, !tbaa !21
  br label %105

23:                                               ; preds = %8
  %24 = load i32, ptr %9, align 8, !tbaa !131
  %25 = icmp ne i32 %24, 0
  %26 = and i32 %12, 7
  %.not = icmp eq i32 %26, 5
  %or.cond = or i1 %.not, %25
  br i1 %or.cond, label %27, label %35

27:                                               ; preds = %23
  %28 = add i32 %24, 128
  %29 = icmp ult i32 %28, 256
  br i1 %29, label %30, label %33

30:                                               ; preds = %27
  %31 = trunc i32 %24 to i8
  %32 = getelementptr inbounds i8, ptr %6, i64 -1
  store i8 %31, ptr %32, align 1, !tbaa !20
  br label %35

33:                                               ; preds = %27
  %34 = getelementptr inbounds i8, ptr %6, i64 -4
  store i32 %24, ptr %34, align 4, !tbaa !21
  br label %35

35:                                               ; preds = %23, %30, %33
  %.248 = phi ptr [ %32, %30 ], [ %34, %33 ], [ %6, %23 ]
  %.2 = phi i32 [ 64, %30 ], [ 128, %33 ], [ 0, %23 ]
  %36 = getelementptr inbounds nuw i8, ptr %0, i64 165
  %37 = load i8, ptr %36, align 1, !tbaa !132
  %.not54 = icmp eq i8 %37, -128
  br i1 %.not54, label %101, label %38

38:                                               ; preds = %35, %13
  %39 = phi i8 [ %17, %13 ], [ %37, %35 ]
  %.150 = phi i32 [ 5, %13 ], [ %12, %35 ]
  %.147 = phi ptr [ %14, %13 ], [ %.248, %35 ]
  %.1 = phi i32 [ 0, %13 ], [ %.2, %35 ]
  %40 = getelementptr inbounds nuw i8, ptr %0, i64 166
  %41 = load i8, ptr %40, align 2, !tbaa !133
  %42 = getelementptr inbounds nuw i8, ptr %0, i64 165
  %43 = shl i8 %39, 3
  %44 = and i8 %43, 56
  %45 = trunc nuw i32 %.150 to i8
  %46 = and i8 %45, 7
  %47 = add i8 %46, %41
  %48 = add i8 %47, %44
  %49 = getelementptr inbounds i8, ptr %.147, i64 -1
  store i8 %48, ptr %49, align 1, !tbaa !20
  %50 = shl i32 %2, 3
  %51 = and i32 %50, 56
  %52 = add nuw nsw i32 %.1, %51
  %53 = trunc nuw i32 %52 to i8
  %54 = add nuw i8 %53, 4
  %55 = getelementptr inbounds i8, ptr %.147, i64 -2
  store i8 %54, ptr %55, align 1, !tbaa !20
  %56 = load i8, ptr %42, align 1, !tbaa !132
  %57 = zext i8 %56 to i32
  %sext.i56 = shl i32 %1, 24
  %58 = icmp eq i32 %sext.i56, -1006632960
  br i1 %58, label %59, label %71

59:                                               ; preds = %38
  %60 = lshr i32 %2, 1
  %61 = and i32 %60, 4
  %62 = lshr i32 %57, 2
  %63 = and i32 %62, 2
  %64 = or disjoint i32 %61, %63
  %65 = lshr i32 %.150, 3
  %66 = and i32 %65, 1
  %67 = or disjoint i32 %64, %66
  %68 = shl nuw nsw i32 %67, 13
  %69 = xor i32 %68, %1
  %70 = getelementptr inbounds i8, ptr %.147, i64 -6
  store i32 %69, ptr %70, align 4, !tbaa !21
  br label %emit_op.exit62

71:                                               ; preds = %38
  %72 = ashr exact i32 %sext.i56, 24
  %73 = getelementptr inbounds i8, ptr %.147, i64 -6
  store i32 %1, ptr %73, align 4, !tbaa !21
  %74 = sext i32 %72 to i64
  %75 = getelementptr i8, ptr %.147, i64 %74
  %76 = getelementptr i8, ptr %75, i64 -1
  %77 = lshr i32 %2, 1
  %78 = and i32 %77, 260
  %79 = lshr i32 %57, 2
  %80 = and i32 %79, 2
  %81 = lshr i32 %.150, 3
  %82 = and i32 %81, 1
  %83 = or disjoint i32 %82, %78
  %84 = or disjoint i32 %83, %80
  %.not.i59 = icmp eq i32 %84, 0
  br i1 %.not.i59, label %emit_op.exit62, label %85

85:                                               ; preds = %71
  %86 = lshr i32 %2, 16
  %87 = or i32 %86, %84
  %88 = or i32 %87, 64
  %89 = icmp eq i32 %sext.i56, -67108864
  br i1 %89, label %90, label %93

90:                                               ; preds = %85
  %91 = trunc i32 %88 to i8
  store i8 %91, ptr %76, align 1, !tbaa !20
  %92 = lshr i32 %1, 8
  br label %98

93:                                               ; preds = %85
  %94 = and i32 %1, 16777215
  %95 = icmp eq i32 %94, 6684925
  br i1 %95, label %96, label %98

96:                                               ; preds = %93
  %97 = trunc i32 %88 to i8
  store i8 %97, ptr %76, align 1, !tbaa !20
  br label %98

98:                                               ; preds = %96, %93, %90
  %.0.i60 = phi i32 [ %92, %90 ], [ 102, %96 ], [ %88, %93 ]
  %99 = trunc i32 %.0.i60 to i8
  %100 = getelementptr i8, ptr %75, i64 -2
  store i8 %99, ptr %100, align 1, !tbaa !20
  br label %emit_op.exit62

101:                                              ; preds = %35
  %102 = icmp eq i32 %26, 4
  br i1 %102, label %103, label %105

103:                                              ; preds = %101
  %104 = getelementptr inbounds i8, ptr %.248, i64 -1
  store i8 36, ptr %104, align 1, !tbaa !20
  br label %105

105:                                              ; preds = %18, %101, %103, %20, %4
  %.049 = phi i32 [ 4, %18 ], [ 37, %20 ], [ %12, %103 ], [ %12, %101 ], [ %3, %4 ]
  %.046 = phi ptr [ %19, %18 ], [ %21, %20 ], [ %104, %103 ], [ %.248, %101 ], [ %6, %4 ]
  %.0 = phi i32 [ 0, %18 ], [ 0, %20 ], [ %.2, %103 ], [ %.2, %101 ], [ 192, %4 ]
  %106 = shl i32 %2, 3
  %107 = and i32 %106, 56
  %108 = and i32 %.049, 7
  %109 = or disjoint i32 %108, %107
  %110 = add nuw nsw i32 %109, %.0
  %111 = trunc nuw i32 %110 to i8
  %112 = getelementptr inbounds i8, ptr %.046, i64 -1
  store i8 %111, ptr %112, align 1, !tbaa !20
  %sext.i = shl i32 %1, 24
  %113 = icmp eq i32 %sext.i, -1006632960
  br i1 %113, label %114, label %123

114:                                              ; preds = %105
  %115 = lshr i32 %2, 1
  %116 = and i32 %115, 4
  %117 = lshr i32 %.049, 3
  %118 = and i32 %117, 1
  %119 = or disjoint i32 %118, %116
  %120 = shl nuw nsw i32 %119, 13
  %121 = xor i32 %120, %1
  %122 = getelementptr inbounds i8, ptr %.046, i64 -5
  store i32 %121, ptr %122, align 4, !tbaa !21
  br label %emit_op.exit62

123:                                              ; preds = %105
  %124 = ashr exact i32 %sext.i, 24
  %125 = getelementptr inbounds i8, ptr %.046, i64 -5
  store i32 %1, ptr %125, align 4, !tbaa !21
  %126 = sext i32 %124 to i64
  %127 = getelementptr inbounds i8, ptr %.046, i64 %126
  %128 = lshr i32 %2, 1
  %129 = and i32 %128, 260
  %130 = lshr i32 %.049, 3
  %131 = and i32 %130, 1
  %132 = or disjoint i32 %131, %129
  %.not.i = icmp eq i32 %132, 0
  br i1 %.not.i, label %emit_op.exit62, label %133

133:                                              ; preds = %123
  %134 = lshr i32 %2, 16
  %135 = or i32 %134, %132
  %136 = or i32 %135, 64
  %137 = icmp eq i32 %sext.i, -67108864
  br i1 %137, label %138, label %141

138:                                              ; preds = %133
  %139 = trunc i32 %136 to i8
  store i8 %139, ptr %127, align 1, !tbaa !20
  %140 = lshr i32 %1, 8
  br label %146

141:                                              ; preds = %133
  %142 = and i32 %1, 16777215
  %143 = icmp eq i32 %142, 6684925
  br i1 %143, label %144, label %146

144:                                              ; preds = %141
  %145 = trunc i32 %136 to i8
  store i8 %145, ptr %127, align 1, !tbaa !20
  br label %146

146:                                              ; preds = %144, %141, %138
  %.0.i = phi i32 [ %140, %138 ], [ 102, %144 ], [ %136, %141 ]
  %147 = trunc i32 %.0.i to i8
  %148 = getelementptr inbounds i8, ptr %127, i64 -1
  store i8 %147, ptr %148, align 1, !tbaa !20
  br label %emit_op.exit62

emit_op.exit62:                                   ; preds = %146, %123, %114, %98, %71, %59
  %storemerge = phi ptr [ %70, %59 ], [ %100, %98 ], [ %76, %71 ], [ %122, %114 ], [ %148, %146 ], [ %127, %123 ]
  store ptr %storemerge, ptr %5, align 8, !tbaa !60
  ret void
}